; Function Attrs: nounwind uwtable
define dso_local ptr @lua_tolstring(ptr noundef %0, i32 noundef %1, ptr noundef writeonly captures(address_is_null) %2) local_unnamed_addr #2 {
  %4 = icmp sgt i32 %1, 0
  br i1 %4, label %5, label %13

5:                                                ; preds = %3
  %6 = getelementptr inbounds nuw i8, ptr %0, i64 24
  %7 = load ptr, ptr %6, align 8, !tbaa !21
  %8 = zext nneg i32 %1 to i64
  %9 = getelementptr %struct.lua_TValue, ptr %7, i64 %8
  %10 = getelementptr i8, ptr %9, i64 -16
  %11 = getelementptr inbounds nuw i8, ptr %0, i64 16
  %12 = load ptr, ptr %11, align 8, !tbaa !4
  %.not28.i = icmp ult ptr %10, %12
  %.luaO_nilobject_.i = select i1 %.not28.i, ptr %10, ptr @luaO_nilobject_
  br label %index2adr.exit

13:                                               ; preds = %3
  %14 = icmp sgt i32 %1, -10000
  br i1 %14, label %15, label %20

15:                                               ; preds = %13
  %16 = getelementptr inbounds nuw i8, ptr %0, i64 16
  %17 = load ptr, ptr %16, align 8, !tbaa !4
  %18 = sext i32 %1 to i64
  %19 = getelementptr inbounds %struct.lua_TValue, ptr %17, i64 %18
  br label %index2adr.exit

20:                                               ; preds = %13
  switch i32 %1, label %37 [
    i32 -10000, label %21
    i32 -10001, label %25
    i32 -10002, label %35
  ]

21:                                               ; preds = %20
  %22 = getelementptr inbounds nuw i8, ptr %0, i64 32
  %23 = load ptr, ptr %22, align 8, !tbaa !29
  %24 = getelementptr inbounds nuw i8, ptr %23, i64 160
  br label %index2adr.exit

25:                                               ; preds = %20
  %26 = getelementptr inbounds nuw i8, ptr %0, i64 40
  %27 = load ptr, ptr %26, align 8, !tbaa !23
  %28 = getelementptr inbounds nuw i8, ptr %27, i64 8
  %29 = load ptr, ptr %28, align 8, !tbaa !41
  %30 = load ptr, ptr %29, align 8, !tbaa !19
  %31 = getelementptr inbounds nuw i8, ptr %0, i64 136
  %32 = getelementptr inbounds nuw i8, ptr %30, i64 24
  %33 = load ptr, ptr %32, align 8, !tbaa !19
  store ptr %33, ptr %31, align 8, !tbaa !19
  %34 = getelementptr inbounds nuw i8, ptr %0, i64 144
  store i32 5, ptr %34, align 8, !tbaa !20
  br label %index2adr.exit

35:                                               ; preds = %20
  %36 = getelementptr inbounds nuw i8, ptr %0, i64 120
  br label %index2adr.exit

37:                                               ; preds = %20
  %38 = getelementptr inbounds nuw i8, ptr %0, i64 40
  %39 = load ptr, ptr %38, align 8, !tbaa !23
  %40 = getelementptr inbounds nuw i8, ptr %39, i64 8
  %41 = load ptr, ptr %40, align 8, !tbaa !41
  %42 = load ptr, ptr %41, align 8, !tbaa !19
  %43 = sub nuw nsw i32 -10002, %1
  %44 = getelementptr inbounds nuw i8, ptr %42, i64 11
  %45 = load i8, ptr %44, align 1, !tbaa !19
  %46 = zext i8 %45 to i32
  %.not.i = icmp samesign ugt i32 %43, %46
  %47 = getelementptr inbounds nuw i8, ptr %42, i64 40
  %48 = sub nuw nsw i32 -10003, %1
  %49 = zext nneg i32 %48 to i64
  %50 = getelementptr inbounds nuw [1 x %struct.lua_TValue], ptr %47, i64 0, i64 %49
  %51 = select i1 %.not.i, ptr @luaO_nilobject_, ptr %50
  br label %index2adr.exit

index2adr.exit:                                   ; preds = %5, %15, %21, %25, %35, %37
  %.1.i = phi ptr [ %.luaO_nilobject_.i, %5 ], [ %19, %15 ], [ %51, %37 ], [ %36, %35 ], [ %31, %25 ], [ %24, %21 ]
  %52 = getelementptr inbounds nuw i8, ptr %.1.i, i64 8
  %53 = load i32, ptr %52, align 8, !tbaa !20
  %54 = icmp eq i32 %53, 4
  br i1 %54, label %index2adr.exit25, label %55

55:                                               ; preds = %index2adr.exit
  %56 = tail call i32 @luaV_tostring(ptr noundef %0, ptr noundef nonnull %.1.i) #14
  %.not = icmp eq i32 %56, 0
  br i1 %.not, label %57, label %59

57:                                               ; preds = %55
  %.not18 = icmp eq ptr %2, null
  br i1 %.not18, label %120, label %58

58:                                               ; preds = %57
  store i64 0, ptr %2, align 8, !tbaa !46
  br label %120

59:                                               ; preds = %55
  %60 = getelementptr inbounds nuw i8, ptr %0, i64 32
  %61 = load ptr, ptr %60, align 8, !tbaa !29
  %62 = getelementptr inbounds nuw i8, ptr %61, i64 120
  %63 = load i64, ptr %62, align 8, !tbaa !38
  %64 = getelementptr inbounds nuw i8, ptr %61, i64 112
  %65 = load i64, ptr %64, align 8, !tbaa !39
  %.not19 = icmp ult i64 %63, %65
  br i1 %.not19, label %67, label %66

66:                                               ; preds = %59
  tail call void @luaC_step(ptr noundef nonnull %0) #14
  br label %67

67:                                               ; preds = %66, %59
  br i1 %4, label %68, label %76

68:                                               ; preds = %67
  %69 = getelementptr inbounds nuw i8, ptr %0, i64 24
  %70 = load ptr, ptr %69, align 8, !tbaa !21
  %71 = zext nneg i32 %1 to i64
  %72 = getelementptr %struct.lua_TValue, ptr %70, i64 %71
  %73 = getelementptr i8, ptr %72, i64 -16
  %74 = getelementptr inbounds nuw i8, ptr %0, i64 16
  %75 = load ptr, ptr %74, align 8, !tbaa !4
  %.not28.i23 = icmp ult ptr %73, %75
  %.luaO_nilobject_.i24 = select i1 %.not28.i23, ptr %73, ptr @luaO_nilobject_
  br label %index2adr.exit25

76:                                               ; preds = %67
  %77 = icmp sgt i32 %1, -10000
  br i1 %77, label %78, label %83

78:                                               ; preds = %76
  %79 = getelementptr inbounds nuw i8, ptr %0, i64 16
  %80 = load ptr, ptr %79, align 8, !tbaa !4
  %81 = sext i32 %1 to i64
  %82 = getelementptr inbounds %struct.lua_TValue, ptr %80, i64 %81
  br label %index2adr.exit25

83:                                               ; preds = %76
  switch i32 %1, label %99 [
    i32 -10000, label %84
    i32 -10001, label %87
    i32 -10002, label %97
  ]

84:                                               ; preds = %83
  %85 = load ptr, ptr %60, align 8, !tbaa !29
  %86 = getelementptr inbounds nuw i8, ptr %85, i64 160
  br label %index2adr.exit25

87:                                               ; preds = %83
  %88 = getelementptr inbounds nuw i8, ptr %0, i64 40
  %89 = load ptr, ptr %88, align 8, !tbaa !23
  %90 = getelementptr inbounds nuw i8, ptr %89, i64 8
  %91 = load ptr, ptr %90, align 8, !tbaa !41
  %92 = load ptr, ptr %91, align 8, !tbaa !19
  %93 = getelementptr inbounds nuw i8, ptr %0, i64 136
  %94 = getelementptr inbounds nuw i8, ptr %92, i64 24
  %95 = load ptr, ptr %94, align 8, !tbaa !19
  store ptr %95, ptr %93, align 8, !tbaa !19
  %96 = getelementptr inbounds nuw i8, ptr %0, i64 144
  store i32 5, ptr %96, align 8, !tbaa !20
  br label %index2adr.exit25

97:                                               ; preds = %83
  %98 = getelementptr inbounds nuw i8, ptr %0, i64 120
  br label %index2adr.exit25

99:                                               ; preds = %83
  %100 = getelementptr inbounds nuw i8, ptr %0, i64 40
  %101 = load ptr, ptr %100, align 8, !tbaa !23
  %102 = getelementptr inbounds nuw i8, ptr %101, i64 8
  %103 = load ptr, ptr %102, align 8, !tbaa !41
  %104 = load ptr, ptr %103, align 8, !tbaa !19
  %105 = sub nuw nsw i32 -10002, %1
  %106 = getelementptr inbounds nuw i8, ptr %104, i64 11
  %107 = load i8, ptr %106, align 1, !tbaa !19
  %108 = zext i8 %107 to i32
  %.not.i22 = icmp samesign ugt i32 %105, %108
  %109 = getelementptr inbounds nuw i8, ptr %104, i64 40
  %110 = sub nuw nsw i32 -10003, %1
  %111 = zext nneg i32 %110 to i64
  %112 = getelementptr inbounds nuw [1 x %struct.lua_TValue], ptr %109, i64 0, i64 %111
  %113 = select i1 %.not.i22, ptr @luaO_nilobject_, ptr %112
  br label %index2adr.exit25

index2adr.exit25:                                 ; preds = %99, %97, %87, %84, %78, %68, %index2adr.exit
  %.0 = phi ptr [ %.1.i, %index2adr.exit ], [ %.luaO_nilobject_.i24, %68 ], [ %82, %78 ], [ %113, %99 ], [ %98, %97 ], [ %93, %87 ], [ %86, %84 ]
  %.not20 = icmp eq ptr %2, null
  %.pre26 = load ptr, ptr %.0, align 8, !tbaa !19
  br i1 %.not20, label %117, label %114

114:                                              ; preds = %index2adr.exit25
  %115 = getelementptr inbounds nuw i8, ptr %.pre26, i64 16
  %116 = load i64, ptr %115, align 8, !tbaa !19
  store i64 %116, ptr %2, align 8, !tbaa !46
  %.pre = load ptr, ptr %.0, align 8, !tbaa !19
  br label %117

117:                                              ; preds = %114, %index2adr.exit25
  %118 = phi ptr [ %.pre, %114 ], [ %.pre26, %index2adr.exit25 ]
  %119 = getelementptr inbounds nuw i8, ptr %118, i64 24
  br label %120

120:                                              ; preds = %57, %58, %117
  %.016 = phi ptr [ %119, %117 ], [ null, %58 ], [ null, %57 ]
  ret ptr %.016
}